Certificate:
    Data:
        Version: 3 (0x2)
        Serial Number: 4822 (0x12d6)
        Signature Algorithm: sha1WithRSAEncryption
        Issuer: C=US, ST=NY, L=New York, O=Bloomberg LP, OU=CTO Office, CN=Bloomberg LP CA/emailAddress=open-tech@bloomberg.net
        Validity
            Not Before: Apr  2 06:00:00 2015 GMT
            Not After : Apr  6 06:00:00 2015 GMT
        Subject: C=US, ST=NY, L=New York, O=Bloomberg LP, OU=CTO Office, CN=lahacks_spring_2015_045/emailAddress=open-tech@bloomberg.net
        Subject Public Key Info:
            Public Key Algorithm: rsaEncryption
            RSA Public Key: (1024 bit)
                Modulus (1024 bit):
                    00:e3:bf:5a:1d:c0:c4:3c:6e:63:14:f9:0b:36:03:
                    80:66:9a:fd:83:8f:c1:05:7e:e7:53:db:c3:20:f6:
                    cd:09:6e:e6:0b:64:29:31:85:73:22:5f:b1:c6:9b:
                    64:f6:1b:a5:6f:3f:2e:67:46:5d:80:eb:d9:7f:74:
                    e5:e0:e3:72:4d:67:ab:5b:1d:a2:31:b7:55:b2:f6:
                    27:20:5e:73:65:2c:bb:3e:16:76:e1:95:e0:b8:ec:
                    93:79:d3:2d:6c:d7:6a:2a:d3:6a:c1:80:7a:a3:d4:
                    12:d6:e2:58:24:e6:d7:fe:54:c9:09:95:1c:41:3f:
                    60:c1:df:70:b8:41:b7:49:03
                Exponent: 65537 (0x10001)
        X509v3 extensions:
            X509v3 Basic Constraints: 
                CA:FALSE
            Netscape Comment: 
                Easy-RSA Generated Certificate
            X509v3 Subject Key Identifier: 
                23:70:4B:41:AA:7F:EC:28:77:00:EF:88:C8:1F:8D:4C:09:9F:C9:46
            X509v3 Authority Key Identifier: 
                keyid:F3:21:76:1F:DA:B5:E7:03:FC:ED:D7:71:B8:1C:55:2D:7E:65:5F:14
                DirName:/C=US/ST=NY/L=New York/O=Bloomberg LP/OU=CTO Office/CN=Bloomberg LP CA/emailAddress=open-tech@bloomberg.net
                serial:81:F3:7A:1C:BC:C6:E8:A2

            X509v3 Extended Key Usage: 
                TLS Web Client Authentication
            X509v3 Key Usage: 
                Digital Signature
    Signature Algorithm: sha1WithRSAEncryption
        50:e8:2a:a4:87:5c:79:0b:2c:5a:df:a3:fd:61:4b:88:12:20:
        8f:8e:50:f6:94:00:72:e0:75:f3:44:2e:0e:17:50:ca:9c:76:
        0e:f7:a2:ff:4c:6e:ec:5d:1a:21:f0:7a:a0:77:c7:2d:05:f1:
        78:f8:e8:49:64:70:6a:f4:45:27:99:d3:8c:4e:33:84:95:ae:
        b4:05:65:46:95:00:52:59:2e:2c:7e:89:08:93:35:c3:4d:20:
        92:35:19:41:80:c8:87:13:bf:1d:78:ef:d8:a0:89:77:27:2f:
        2b:77:3e:a7:4b:31:bd:a9:ab:c8:ac:6c:1a:d1:4b:09:cf:ca:
        11:a5
-----BEGIN CERTIFICATE-----
MIIECzCCA3SgAwIBAgICEtYwDQYJKoZIhvcNAQEFBQAwgZsxCzAJBgNVBAYTAlVT
MQswCQYDVQQIEwJOWTERMA8GA1UEBxMITmV3IFlvcmsxFTATBgNVBAoTDEJsb29t
YmVyZyBMUDETMBEGA1UECxMKQ1RPIE9mZmljZTEYMBYGA1UEAxMPQmxvb21iZXJn
IExQIENBMSYwJAYJKoZIhvcNAQkBFhdvcGVuLXRlY2hAYmxvb21iZXJnLm5ldDAe
Fw0xNTA0MDIwNjAwMDBaFw0xNTA0MDYwNjAwMDBaMIGjMQswCQYDVQQGEwJVUzEL
MAkGA1UECBMCTlkxETAPBgNVBAcTCE5ldyBZb3JrMRUwEwYDVQQKEwxCbG9vbWJl
cmcgTFAxEzARBgNVBAsTCkNUTyBPZmZpY2UxIDAeBgNVBAMUF2xhaGFja3Nfc3By
aW5nXzIwMTVfMDQ1MSYwJAYJKoZIhvcNAQkBFhdvcGVuLXRlY2hAYmxvb21iZXJn
Lm5ldDCBnzANBgkqhkiG9w0BAQEFAAOBjQAwgYkCgYEA479aHcDEPG5jFPkLNgOA
Zpr9g4/BBX7nU9vDIPbNCW7mC2QpMYVzIl+xxptk9hulbz8uZ0ZdgOvZf3Tl4ONy
TWerWx2iMbdVsvYnIF5zZSy7PhZ24ZXguOyTedMtbNdqKtNqwYB6o9QS1uJYJObX
/lTJCZUcQT9gwd9wuEG3SQMCAwEAAaOCAVIwggFOMAkGA1UdEwQCMAAwLQYJYIZI
AYb4QgENBCAWHkVhc3ktUlNBIEdlbmVyYXRlZCBDZXJ0aWZpY2F0ZTAdBgNVHQ4E
FgQUI3BLQap/7Ch3AO+IyB+NTAmfyUYwgdAGA1UdIwSByDCBxYAU8yF2H9q15wP8
7ddxuBxVLX5lXxShgaGkgZ4wgZsxCzAJBgNVBAYTAlVTMQswCQYDVQQIEwJOWTER
MA8GA1UEBxMITmV3IFlvcmsxFTATBgNVBAoTDEJsb29tYmVyZyBMUDETMBEGA1UE
CxMKQ1RPIE9mZmljZTEYMBYGA1UEAxMPQmxvb21iZXJnIExQIENBMSYwJAYJKoZI
hvcNAQkBFhdvcGVuLXRlY2hAYmxvb21iZXJnLm5ldIIJAIHzehy8xuiiMBMGA1Ud
JQQMMAoGCCsGAQUFBwMCMAsGA1UdDwQEAwIHgDANBgkqhkiG9w0BAQUFAAOBgQBQ
6Cqkh1x5Cyxa36P9YUuIEiCPjlD2lABy4HXzRC4OF1DKnHYO96L/TG7sXRoh8Hqg
d8ctBfF4+OhJZHBq9EUnmdOMTjOEla60BWVGlQBSWS4sfokIkzXDTSCSNRlBgMiH
E78deO/YoIl3Jy8rdz6nSzG9qavIrGwa0UsJz8oRpQ==
-----END CERTIFICATE-----
